; Function Attrs: nounwind uwtable
define internal noundef ptr @test_pyobject_new(ptr readnone captures(none) %0, ptr readnone captures(none) %1) #0 {
  %3 = tail call ptr @_PyObject_New(ptr noundef nonnull @PyBaseObject_Type) #4
  %4 = icmp eq ptr %3, null
  br i1 %4, label %35, label %5

5:                                                ; preds = %2
  %6 = load i32, ptr %3, align 8, !tbaa !3
  %.not.i = icmp sgt i32 %6, -1
  br i1 %.not.i, label %7, label %Py_DECREF.exit

7:                                                ; preds = %5
  %8 = add nsw i32 %6, -1
  store i32 %8, ptr %3, align 8, !tbaa !3
  %9 = icmp eq i32 %8, 0
  br i1 %9, label %10, label %Py_DECREF.exit

10:                                               ; preds = %7
  tail call void @_Py_Dealloc(ptr noundef nonnull %3) #4
  br label %Py_DECREF.exit

Py_DECREF.exit:                                   ; preds = %5, %7, %10
  %11 = tail call ptr @_PyObject_New(ptr noundef nonnull @PyBaseObject_Type) #4
  %12 = icmp eq ptr %11, null
  br i1 %12, label %35, label %13

13:                                               ; preds = %Py_DECREF.exit
  %14 = load i32, ptr %11, align 8, !tbaa !3
  %.not.i17 = icmp sgt i32 %14, -1
  br i1 %.not.i17, label %15, label %Py_DECREF.exit18

15:                                               ; preds = %13
  %16 = add nsw i32 %14, -1
  store i32 %16, ptr %11, align 8, !tbaa !3
  %17 = icmp eq i32 %16, 0
  br i1 %17, label %18, label %Py_DECREF.exit18

18:                                               ; preds = %15
  tail call void @_Py_Dealloc(ptr noundef nonnull %11) #4
  br label %Py_DECREF.exit18

Py_DECREF.exit18:                                 ; preds = %13, %15, %18
  %19 = tail call ptr @_PyObject_NewVar(ptr noundef nonnull @PyBytes_Type, i64 noundef 3) #4
  %20 = icmp eq ptr %19, null
  br i1 %20, label %35, label %21

21:                                               ; preds = %Py_DECREF.exit18
  %22 = load i32, ptr %19, align 8, !tbaa !3
  %.not.i19 = icmp sgt i32 %22, -1
  br i1 %.not.i19, label %23, label %Py_DECREF.exit20

23:                                               ; preds = %21
  %24 = add nsw i32 %22, -1
  store i32 %24, ptr %19, align 8, !tbaa !3
  %25 = icmp eq i32 %24, 0
  br i1 %25, label %26, label %Py_DECREF.exit20

26:                                               ; preds = %23
  tail call void @_Py_Dealloc(ptr noundef nonnull %19) #4
  br label %Py_DECREF.exit20

Py_DECREF.exit20:                                 ; preds = %21, %23, %26
  %27 = tail call ptr @_PyObject_NewVar(ptr noundef nonnull @PyBytes_Type, i64 noundef 3) #4
  %28 = icmp eq ptr %27, null
  br i1 %28, label %35, label %29

29:                                               ; preds = %Py_DECREF.exit20
  %30 = load i32, ptr %27, align 8, !tbaa !3
  %.not.i21 = icmp sgt i32 %30, -1
  br i1 %.not.i21, label %31, label %Py_DECREF.exit22

31:                                               ; preds = %29
  %32 = add nsw i32 %30, -1
  store i32 %32, ptr %27, align 8, !tbaa !3
  %33 = icmp eq i32 %32, 0
  br i1 %33, label %34, label %Py_DECREF.exit22

34:                                               ; preds = %31
  tail call void @_Py_Dealloc(ptr noundef nonnull %27) #4
  br label %Py_DECREF.exit22

35:                                               ; preds = %Py_DECREF.exit20, %Py_DECREF.exit18, %Py_DECREF.exit, %2
  %36 = tail call ptr @PyErr_NoMemory() #4
  br label %Py_DECREF.exit22

Py_DECREF.exit22:                                 ; preds = %34, %31, %29, %35
  %.0 = phi ptr [ null, %35 ], [ @_Py_NoneStruct, %29 ], [ @_Py_NoneStruct, %31 ], [ @_Py_NoneStruct, %34 ]
  ret ptr %.0
}